target datalayout = "e-m:e-p270:32:32-p271:32:32-p272:64:64-i64:64-f80:128-n8:16:32:64-S128"
target triple = "x86_64-pc-linux-gnu"

@.str = private unnamed_addr constant [4 x i8] c"%d\0A\00", align 1
@.str.1 = private unnamed_addr constant [4 x i8] c"%c\0A\00", align 1

; Function Attrs: noinline nounwind uwtable
define dso_local i32 @main() #0 {
  %1 = alloca i32, align 4
  %2 = alloca [102 x [102 x i8]], align 16
  %3 = alloca [102 x [102 x i8]], align 16
  %4 = alloca i32, align 4
  %5 = alloca i32, align 4
  %6 = alloca i32, align 4
  %7 = alloca i32, align 4
  %8 = alloca i32, align 4
  %9 = alloca i32, align 4
  %10 = alloca i32, align 4
  %11 = alloca i32, align 4
  store i32 0, i32* %1, align 4
  store i32 0, i32* %9, align 4
  %12 = getelementptr inbounds [102 x [102 x i8]], [102 x [102 x i8]]* %2, i64 0, i64 0
  %13 = bitcast [102 x i8]* %12 to i8*
  call void @llvm.memset.p0i8.i64(i8* align 16 %13, i8 64, i64 10404, i1 false)
  %14 = call i32 (i8*, ...) @__isoc99_scanf(i8* getelementptr inbounds ([4 x i8], [4 x i8]* @.str, i64 0, i64 0), i32* %4)
  store i32 1, i32* %5, align 4
  br label %15

15:                                               ; preds = %49, %0
  %16 = load i32, i32* %5, align 4
  %17 = load i32, i32* %4, align 4
  %18 = icmp sle i32 %16, %17
  br i1 %18, label %19, label %52

19:                                               ; preds = %15
  store i32 1, i32* %6, align 4
  br label %20

20:                                               ; preds = %45, %19
  %21 = load i32, i32* %6, align 4
  %22 = load i32, i32* %4, align 4
  %23 = icmp sle i32 %21, %22
  br i1 %23, label %24, label %48

24:                                               ; preds = %20
  %25 = load i32, i32* %5, align 4
  %26 = sext i32 %25 to i64
  %27 = getelementptr inbounds [102 x [102 x i8]], [102 x [102 x i8]]* %2, i64 0, i64 %26
  %28 = load i32, i32* %6, align 4
  %29 = sext i32 %28 to i64
  %30 = getelementptr inbounds [102 x i8], [102 x i8]* %27, i64 0, i64 %29
  %31 = call i32 (i8*, ...) @__isoc99_scanf(i8* getelementptr inbounds ([4 x i8], [4 x i8]* @.str.1, i64 0, i64 0), i8* %30)
  %32 = load i32, i32* %5, align 4
  %33 = sext i32 %32 to i64
  %34 = getelementptr inbounds [102 x [102 x i8]], [102 x [102 x i8]]* %2, i64 0, i64 %33
  %35 = load i32, i32* %6, align 4
  %36 = sext i32 %35 to i64
  %37 = getelementptr inbounds [102 x i8], [102 x i8]* %34, i64 0, i64 %36
  %38 = load i8, i8* %37, align 1
  %39 = load i32, i32* %5, align 4
  %40 = sext i32 %39 to i64
  %41 = getelementptr inbounds [102 x [102 x i8]], [102 x [102 x i8]]* %3, i64 0, i64 %40
  %42 = load i32, i32* %6, align 4
  %43 = sext i32 %42 to i64
  %44 = getelementptr inbounds [102 x i8], [102 x i8]* %41, i64 0, i64 %43
  store i8 %38, i8* %44, align 1
  br label %45

45:                                               ; preds = %24
  %46 = load i32, i32* %6, align 4
  %47 = add nsw i32 %46, 1
  store i32 %47, i32* %6, align 4
  br label %20

48:                                               ; preds = %20
  br label %49

49:                                               ; preds = %48
  %50 = load i32, i32* %5, align 4
  %51 = add nsw i32 %50, 1
  store i32 %51, i32* %5, align 4
  br label %15

52:                                               ; preds = %15
  %53 = call i32 (i8*, ...) @__isoc99_scanf(i8* getelementptr inbounds ([4 x i8], [4 x i8]* @.str, i64 0, i64 0), i32* %7)
  store i32 1, i32* %8, align 4
  br label %54

54:                                               ; preds = %195, %52
  %55 = load i32, i32* %8, align 4
  %56 = load i32, i32* %7, align 4
  %57 = icmp slt i32 %55, %56
  br i1 %57, label %58, label %198

58:                                               ; preds = %54
  store i32 1, i32* %5, align 4
  br label %59

59:                                               ; preds = %160, %58
  %60 = load i32, i32* %5, align 4
  %61 = load i32, i32* %4, align 4
  %62 = icmp sle i32 %60, %61
  br i1 %62, label %63, label %163

63:                                               ; preds = %59
  store i32 1, i32* %6, align 4
  br label %64

64:                                               ; preds = %156, %63
  %65 = load i32, i32* %6, align 4
  %66 = load i32, i32* %4, align 4
  %67 = icmp sle i32 %65, %66
  br i1 %67, label %68, label %159

68:                                               ; preds = %64
  %69 = load i32, i32* %5, align 4
  %70 = sext i32 %69 to i64
  %71 = getelementptr inbounds [102 x [102 x i8]], [102 x [102 x i8]]* %3, i64 0, i64 %70
  %72 = load i32, i32* %6, align 4
  %73 = sext i32 %72 to i64
  %74 = getelementptr inbounds [102 x i8], [102 x i8]* %71, i64 0, i64 %73
  %75 = load i8, i8* %74, align 1
  %76 = sext i8 %75 to i32
  %77 = icmp eq i32 %76, 64
  br i1 %77, label %78, label %155

78:                                               ; preds = %68
  %79 = load i32, i32* %5, align 4
  %80 = sub nsw i32 %79, 1
  %81 = sext i32 %80 to i64
  %82 = getelementptr inbounds [102 x [102 x i8]], [102 x [102 x i8]]* %2, i64 0, i64 %81
  %83 = load i32, i32* %6, align 4
  %84 = sext i32 %83 to i64
  %85 = getelementptr inbounds [102 x i8], [102 x i8]* %82, i64 0, i64 %84
  %86 = load i8, i8* %85, align 1
  %87 = sext i8 %86 to i32
  %88 = icmp eq i32 %87, 46
  br i1 %88, label %89, label %97

89:                                               ; preds = %78
  %90 = load i32, i32* %5, align 4
  %91 = sub nsw i32 %90, 1
  %92 = sext i32 %91 to i64
  %93 = getelementptr inbounds [102 x [102 x i8]], [102 x [102 x i8]]* %2, i64 0, i64 %92
  %94 = load i32, i32* %6, align 4
  %95 = sext i32 %94 to i64
  %96 = getelementptr inbounds [102 x i8], [102 x i8]* %93, i64 0, i64 %95
  store i8 64, i8* %96, align 1
  br label %97

97:                                               ; preds = %89, %78
  %98 = load i32, i32* %5, align 4
  %99 = add nsw i32 %98, 1
  %100 = sext i32 %99 to i64
  %101 = getelementptr inbounds [102 x [102 x i8]], [102 x [102 x i8]]* %2, i64 0, i64 %100
  %102 = load i32, i32* %6, align 4
  %103 = sext i32 %102 to i64
  %104 = getelementptr inbounds [102 x i8], [102 x i8]* %101, i64 0, i64 %103
  %105 = load i8, i8* %104, align 1
  %106 = sext i8 %105 to i32
  %107 = icmp eq i32 %106, 46
  br i1 %107, label %108, label %116

108:                                              ; preds = %97
  %109 = load i32, i32* %5, align 4
  %110 = add nsw i32 %109, 1
  %111 = sext i32 %110 to i64
  %112 = getelementptr inbounds [102 x [102 x i8]], [102 x [102 x i8]]* %2, i64 0, i64 %111
  %113 = load i32, i32* %6, align 4
  %114 = sext i32 %113 to i64
  %115 = getelementptr inbounds [102 x i8], [102 x i8]* %112, i64 0, i64 %114
  store i8 64, i8* %115, align 1
  br label %116

116:                                              ; preds = %108, %97
  %117 = load i32, i32* %5, align 4
  %118 = sext i32 %117 to i64
  %119 = getelementptr inbounds [102 x [102 x i8]], [102 x [102 x i8]]* %2, i64 0, i64 %118
  %120 = load i32, i32* %6, align 4
  %121 = sub nsw i32 %120, 1
  %122 = sext i32 %121 to i64
  %123 = getelementptr inbounds [102 x i8], [102 x i8]* %119, i64 0, i64 %122
  %124 = load i8, i8* %123, align 1
  %125 = sext i8 %124 to i32
  %126 = icmp eq i32 %125, 46
  br i1 %126, label %127, label %135

127:                                              ; preds = %116
  %128 = load i32, i32* %5, align 4
  %129 = sext i32 %128 to i64
  %130 = getelementptr inbounds [102 x [102 x i8]], [102 x [102 x i8]]* %2, i64 0, i64 %129
  %131 = load i32, i32* %6, align 4
  %132 = sub nsw i32 %131, 1
  %133 = sext i32 %132 to i64
  %134 = getelementptr inbounds [102 x i8], [102 x i8]* %130, i64 0, i64 %133
  store i8 64, i8* %134, align 1
  br label %135

135:                                              ; preds = %127, %116
  %136 = load i32, i32* %5, align 4
  %137 = sext i32 %136 to i64
  %138 = getelementptr inbounds [102 x [102 x i8]], [102 x [102 x i8]]* %2, i64 0, i64 %137
  %139 = load i32, i32* %6, align 4
  %140 = add nsw i32 %139, 1
  %141 = sext i32 %140 to i64
  %142 = getelementptr inbounds [102 x i8], [102 x i8]* %138, i64 0, i64 %141
  %143 = load i8, i8* %142, align 1
  %144 = sext i8 %143 to i32
  %145 = icmp eq i32 %144, 46
  br i1 %145, label %146, label %154

146:                                              ; preds = %135
  %147 = load i32, i32* %5, align 4
  %148 = sext i32 %147 to i64
  %149 = getelementptr inbounds [102 x [102 x i8]], [102 x [102 x i8]]* %2, i64 0, i64 %148
  %150 = load i32, i32* %6, align 4
  %151 = add nsw i32 %150, 1
  %152 = sext i32 %151 to i64
  %153 = getelementptr inbounds [102 x i8], [102 x i8]* %149, i64 0, i64 %152
  store i8 64, i8* %153, align 1
  br label %154

154:                                              ; preds = %146, %135
  br label %155

155:                                              ; preds = %154, %68
  br label %156

156:                                              ; preds = %155
  %157 = load i32, i32* %6, align 4
  %158 = add nsw i32 %157, 1
  store i32 %158, i32* %6, align 4
  br label %64

159:                                              ; preds = %64
  br label %160

160:                                              ; preds = %159
  %161 = load i32, i32* %5, align 4
  %162 = add nsw i32 %161, 1
  store i32 %162, i32* %5, align 4
  br label %59

163:                                              ; preds = %59
  store i32 1, i32* %10, align 4
  br label %164

164:                                              ; preds = %191, %163
  %165 = load i32, i32* %10, align 4
  %166 = load i32, i32* %4, align 4
  %167 = icmp sle i32 %165, %166
  br i1 %167, label %168, label %194

168:                                              ; preds = %164
  store i32 1, i32* %11, align 4
  br label %169

169:                                              ; preds = %187, %168
  %170 = load i32, i32* %11, align 4
  %171 = load i32, i32* %4, align 4
  %172 = icmp sle i32 %170, %171
  br i1 %172, label %173, label %190

173:                                              ; preds = %169
  %174 = load i32, i32* %10, align 4
  %175 = sext i32 %174 to i64
  %176 = getelementptr inbounds [102 x [102 x i8]], [102 x [102 x i8]]* %2, i64 0, i64 %175
  %177 = load i32, i32* %11, align 4
  %178 = sext i32 %177 to i64
  %179 = getelementptr inbounds [102 x i8], [102 x i8]* %176, i64 0, i64 %178
  %180 = load i8, i8* %179, align 1
  %181 = load i32, i32* %10, align 4
  %182 = sext i32 %181 to i64
  %183 = getelementptr inbounds [102 x [102 x i8]], [102 x [102 x i8]]* %3, i64 0, i64 %182
  %184 = load i32, i32* %11, align 4
  %185 = sext i32 %184 to i64
  %186 = getelementptr inbounds [102 x i8], [102 x i8]* %183, i64 0, i64 %185
  store i8 %180, i8* %186, align 1
  br label %187

187:                                              ; preds = %173
  %188 = load i32, i32* %11, align 4
  %189 = add nsw i32 %188, 1
  store i32 %189, i32* %11, align 4
  br label %169

190:                                              ; preds = %169
  br label %191

191:                                              ; preds = %190
  %192 = load i32, i32* %10, align 4
  %193 = add nsw i32 %192, 1
  store i32 %193, i32* %10, align 4
  br label %164

194:                                              ; preds = %164
  br label %195

195:                                              ; preds = %194
  %196 = load i32, i32* %8, align 4
  %197 = add nsw i32 %196, 1
  store i32 %197, i32* %8, align 4
  br label %54

198:                                              ; preds = %54
  store i32 1, i32* %5, align 4
  br label %199

199:                                              ; preds = %226, %198
  %200 = load i32, i32* %5, align 4
  %201 = load i32, i32* %4, align 4
  %202 = icmp sle i32 %200, %201
  br i1 %202, label %203, label %229

203:                                              ; preds = %199
  store i32 1, i32* %6, align 4
  br label %204

204:                                              ; preds = %222, %203
  %205 = load i32, i32* %6, align 4
  %206 = load i32, i32* %4, align 4
  %207 = icmp sle i32 %205, %206
  br i1 %207, label %208, label %225

208:                                              ; preds = %204
  %209 = load i32, i32* %5, align 4
  %210 = sext i32 %209 to i64
  %211 = getelementptr inbounds [102 x [102 x i8]], [102 x [102 x i8]]* %2, i64 0, i64 %210
  %212 = load i32, i32* %6, align 4
  %213 = sext i32 %212 to i64
  %214 = getelementptr inbounds [102 x i8], [102 x i8]* %211, i64 0, i64 %213
  %215 = load i8, i8* %214, align 1
  %216 = sext i8 %215 to i32
  %217 = icmp eq i32 %216, 64
  br i1 %217, label %218, label %221

218:                                              ; preds = %208
  %219 = load i32, i32* %9, align 4
  %220 = add nsw i32 %219, 1
  store i32 %220, i32* %9, align 4
  br label %221

221:                                              ; preds = %218, %208
  br label %222

222:                                              ; preds = %221
  %223 = load i32, i32* %6, align 4
  %224 = add nsw i32 %223, 1
  store i32 %224, i32* %6, align 4
  br label %204

225:                                              ; preds = %204
  br label %226

226:                                              ; preds = %225
  %227 = load i32, i32* %5, align 4
  %228 = add nsw i32 %227, 1
  store i32 %228, i32* %5, align 4
  br label %199

229:                                              ; preds = %199
  %230 = load i32, i32* %9, align 4
  %231 = call i32 (i8*, ...) @printf(i8* getelementptr inbounds ([4 x i8], [4 x i8]* @.str, i64 0, i64 0), i32 %230)
  ret i32 0
}